target datalayout = "e-m:e-p270:32:32-p271:32:32-p272:64:64-i64:64-i128:128-f80:128-n8:16:32:64-S128"
target triple = "x86_64-pc-linux-gnu"

; Function Attrs: inlinehint nounwind null_pointer_is_valid sspstrong uwtable
define internal void @phton64(ptr noundef %0, i64 noundef %1) #11 {
  %3 = alloca ptr, align 8
  %4 = alloca i64, align 8
  store ptr %0, ptr %3, align 8
  store i64 %1, ptr %4, align 8
  %5 = load i64, ptr %4, align 8
  %6 = lshr i64 %5, 56
  %7 = trunc i64 %6 to i8
  %8 = load ptr, ptr %3, align 8
  %9 = getelementptr i8, ptr %8, i64 0
  store i8 %7, ptr %9, align 1
  %10 = load i64, ptr %4, align 8
  %11 = lshr i64 %10, 48
  %12 = trunc i64 %11 to i8
  %13 = load ptr, ptr %3, align 8
  %14 = getelementptr i8, ptr %13, i64 1
  store i8 %12, ptr %14, align 1
  %15 = load i64, ptr %4, align 8
  %16 = lshr i64 %15, 40
  %17 = trunc i64 %16 to i8
  %18 = load ptr, ptr %3, align 8
  %19 = getelementptr i8, ptr %18, i64 2
  store i8 %17, ptr %19, align 1
  %20 = load i64, ptr %4, align 8
  %21 = lshr i64 %20, 32
  %22 = trunc i64 %21 to i8
  %23 = load ptr, ptr %3, align 8
  %24 = getelementptr i8, ptr %23, i64 3
  store i8 %22, ptr %24, align 1
  %25 = load i64, ptr %4, align 8
  %26 = lshr i64 %25, 24
  %27 = trunc i64 %26 to i8
  %28 = load ptr, ptr %3, align 8
  %29 = getelementptr i8, ptr %28, i64 4
  store i8 %27, ptr %29, align 1
  %30 = load i64, ptr %4, align 8
  %31 = lshr i64 %30, 16
  %32 = trunc i64 %31 to i8
  %33 = load ptr, ptr %3, align 8
  %34 = getelementptr i8, ptr %33, i64 5
  store i8 %32, ptr %34, align 1
  %35 = load i64, ptr %4, align 8
  %36 = lshr i64 %35, 8
  %37 = trunc i64 %36 to i8
  %38 = load ptr, ptr %3, align 8
  %39 = getelementptr i8, ptr %38, i64 6
  store i8 %37, ptr %39, align 1
  %40 = load i64, ptr %4, align 8
  %41 = lshr i64 %40, 0
  %42 = trunc i64 %41 to i8
  %43 = load ptr, ptr %3, align 8
  %44 = getelementptr i8, ptr %43, i64 7
  store i8 %42, ptr %44, align 1
  ret void
}

; Function Attrs: null_pointer_is_valid sspstrong uwtable
define hidden ptr @eui64_to_display(ptr noundef %0, i64 noundef %1) #3 {
  %3 = alloca ptr, align 8
  %4 = alloca i64, align 8
  %5 = alloca [8 x i8], align 1
  %6 = alloca ptr, align 8
  store ptr %0, ptr %3, align 8
  store i64 %1, ptr %4, align 8
  call void @llvm.lifetime.start.p0(i64 8, ptr %5) #16
  %7 = getelementptr inbounds [8 x i8], ptr %5, i64 0, i64 0
  %8 = load i64, ptr %4, align 8
  call void @phton64(ptr noundef %7, i64 noundef %8)
  call void @llvm.lifetime.start.p0(i64 8, ptr %6) #16
  %9 = getelementptr inbounds [8 x i8], ptr %5, i64 0, i64 0
  %10 = call ptr @get_eui64_name(ptr noundef %9)
  store ptr %10, ptr %6, align 8
  %11 = load ptr, ptr %3, align 8
  %12 = load ptr, ptr %6, align 8
  %13 = call noalias ptr @wmem_strdup(ptr noundef %11, ptr noundef %12)
  call void @llvm.lifetime.end.p0(i64 8, ptr %6) #16
  call void @llvm.lifetime.end.p0(i64 8, ptr %5) #16
  ret ptr %13
}