; Function Attrs: null_pointer_is_valid sspstrong uwtable
define hidden noalias ptr @eui64_to_display(ptr noundef %0, i64 noundef %1) local_unnamed_addr #3 {
  %3 = alloca [8 x i8], align 1
  call void @llvm.lifetime.start.p0(i64 8, ptr nonnull %3) #24
  %4 = lshr i64 %1, 56
  %5 = trunc nuw i64 %4 to i8
  store i8 %5, ptr %3, align 1
  %6 = lshr i64 %1, 48
  %7 = trunc i64 %6 to i8
  %8 = getelementptr inbounds nuw i8, ptr %3, i64 1
  store i8 %7, ptr %8, align 1
  %9 = lshr i64 %1, 40
  %10 = trunc i64 %9 to i8
  %11 = getelementptr inbounds nuw i8, ptr %3, i64 2
  store i8 %10, ptr %11, align 1
  %12 = lshr i64 %1, 32
  %13 = trunc i64 %12 to i8
  %14 = getelementptr inbounds nuw i8, ptr %3, i64 3
  store i8 %13, ptr %14, align 1
  %15 = lshr i64 %1, 24
  %16 = trunc i64 %15 to i8
  %17 = getelementptr inbounds nuw i8, ptr %3, i64 4
  store i8 %16, ptr %17, align 1
  %18 = lshr i64 %1, 16
  %19 = trunc i64 %18 to i8
  %20 = getelementptr inbounds nuw i8, ptr %3, i64 5
  store i8 %19, ptr %20, align 1
  %21 = lshr i64 %1, 8
  %22 = trunc i64 %21 to i8
  %23 = getelementptr inbounds nuw i8, ptr %3, i64 6
  store i8 %22, ptr %23, align 1
  %24 = trunc i64 %1 to i8
  %25 = getelementptr inbounds nuw i8, ptr %3, i64 7
  store i8 %24, ptr %25, align 1
  %26 = call ptr @get_eui64_name(ptr noundef nonnull %3)
  %27 = call noalias ptr @wmem_strdup(ptr noundef %0, ptr noundef nonnull %26)
  call void @llvm.lifetime.end.p0(i64 8, ptr nonnull %3) #24
  ret ptr %27
}